target datalayout = "e-m:e-p270:32:32-p271:32:32-p272:64:64-i64:64-i128:128-f80:128-n8:16:32:64-S128"
target triple = "x86_64-pc-linux-gnu"

@.str.49 = private unnamed_addr constant [8 x i8] c"readdir\00", align 1

; Function Attrs: nounwind sspstrong uwtable
define internal ptr @nogvl_readdir(ptr noundef %0) #0 {
  %2 = alloca ptr, align 8
  store ptr %0, ptr %2, align 8, !tbaa !14
  call void @rb_errno_set(i32 noundef 0)
  %3 = load ptr, ptr %2, align 8, !tbaa !14
  %4 = call ptr @readdir(ptr noundef %3)
  store ptr %4, ptr %2, align 8, !tbaa !14
  %5 = icmp eq ptr %4, null
  br i1 %5, label %6, label %12

6:                                                ; preds = %1
  %7 = call i32 @rb_errno()
  %8 = icmp ne i32 %7, 0
  br i1 %8, label %9, label %11

9:                                                ; preds = %6
  %10 = call ptr @rb_thread_call_with_gvl(ptr noundef @sys_failure, ptr noundef @.str.49)
  br label %11

11:                                               ; preds = %9, %6
  br label %12

12:                                               ; preds = %11, %1
  %13 = load ptr, ptr %2, align 8, !tbaa !14
  ret ptr %13
}