; Function Attrs: nounwind sspstrong uwtable
define internal ptr @nogvl_readdir(ptr noundef %0) #0 {
  tail call void @rb_errno_set(i32 noundef 0) #22
  %2 = tail call ptr @readdir(ptr noundef %0) #22
  %3 = icmp eq ptr %2, null
  br i1 %3, label %4, label %8

4:                                                ; preds = %1
  %5 = tail call i32 @rb_errno() #22
  %.not = icmp eq i32 %5, 0
  br i1 %.not, label %8, label %6

6:                                                ; preds = %4
  %7 = tail call ptr @rb_thread_call_with_gvl(ptr noundef nonnull @sys_failure, ptr noundef nonnull @.str.49) #22
  br label %8

8:                                                ; preds = %4, %6, %1
  ret ptr %2
}